target datalayout = "e-m:e-p270:32:32-p271:32:32-p272:64:64-i64:64-i128:128-f80:128-n8:16:32:64-S128"
target triple = "x86_64-unknown-linux-gnu"

%struct.redisServer = type { i32, i64, ptr, ptr, ptr, i32, i32, i32, i32, i32, ptr, ptr, ptr, ptr, ptr, ptr, i32, i32, i64, i32, i32, i32, i32, ptr, i32, i32, [41 x i8], i32, i64, i32, i32, i32, ptr, ptr, i32, i32, i64, ptr, ptr, ptr, ptr, [2 x i32], i32, i32, i32, i32, i32, [16 x ptr], i32, ptr, ptr, i32, [8 x %struct.connListener], i32, %struct.connListener, ptr, ptr, ptr, ptr, ptr, ptr, ptr, ptr, ptr, ptr, i32, ptr, i32, ptr, [3 x %struct.pause_event], [256 x i8], ptr, i64, i32, i32, i32, i32, i64, i32, i32, i32, i32, i32, i64, i64, i64, i64, i64, i64, i64, i64, i64, double, i64, i64, i64, i64, i64, i64, i64, i64, i64, i64, i64, i64, i64, i64, i64, i64, i64, i64, i64, i64, double, i64, i64, i64, i64, i64, ptr, i64, i64, i64, %struct.malloc_stats, i64, i64, i64, i64, i64, i64, i64, i64, i64, i64, i64, i64, double, [4 x i64], i64, i64, i64, i64, i64, i64, i64, i64, i64, i64, [7 x %struct.anon], i64, i64, i64, i64, i64, i64, [4 x %struct.durationStats], i32, i32, i32, i32, i32, i32, i32, i32, i32, i32, i64, i32, i32, i32, i32, i64, i64, i32, i32, i32, i32, i32, ptr, [3 x %struct.clientBufferLimitsConfig], i32, i32, ptr, i32, i32, i32, i32, ptr, ptr, i32, i32, i64, i64, i64, i64, i64, i32, i32, ptr, i32, i32, i64, i64, i64, i64, i64, i32, i32, i64, i32, i32, i32, i32, i32, i32, i32, i32, ptr, i32, i64, i64, i64, i64, ptr, i32, ptr, i32, i32, i32, i64, i64, i64, i64, i32, i32, i32, i32, i32, i32, ptr, i32, i32, ptr, i32, i32, i32, [2 x i32], i32, %struct.redisOpArray, i32, ptr, i32, ptr, i32, i32, i32, i32, i32, i32, i32, [41 x i8], [41 x i8], i64, i64, i64, i64, i32, i32, ptr, i64, i64, i64, i32, i32, i32, i32, i32, i32, i32, i64, ptr, ptr, ptr, ptr, i32, i32, ptr, ptr, i32, i32, i64, i64, i64, ptr, i32, ptr, i64, i32, i32, i32, i64, i32, i32, i32, i32, ptr, i32, i32, [41 x i8], i64, i32, ptr, i32, i32, i64, i64, i32, i32, i32, i32, i32, i64, [3 x i32], i32, i32, i32, [9 x i32], ptr, ptr, i32, i64, ptr, ptr, i32, i32, i32, i32, i64, i64, i64, i64, i64, i64, i64, i64, i64, i64, i32, i32, i64, i64, i32, i64, i64, i64, i64, i64, ptr, ptr, i32, ptr, i32, i32, i32, i64, i64, ptr, ptr, i32, i32, i32, i32, i32, ptr, ptr, ptr, i32, i32, i32, i32, i32, i32, i32, i64, i32, i64, i32, i32, i32, i32, i32, i32, i32, i64, ptr, ptr, i64, ptr, i32, %struct.aclInfo, i32, i64, i32, i32, i32, %struct.redisTLSContextConfig, ptr, ptr, ptr, ptr, ptr, i64, i32, ptr, i32, i32, i32, i64, i32, ptr }
%struct.connListener = type { [16 x i32], i32, ptr, i32, i32, ptr, ptr }
%struct.pause_event = type { i32, i64 }
%struct.malloc_stats = type { i64, i64, i64, i64, i64 }
%struct.anon = type { i64, i64, [16 x i64], i32 }
%struct.durationStats = type { i64, i64, i64 }
%struct.clientBufferLimitsConfig = type { i64, i64, i64 }
%struct.redisOpArray = type { ptr, i32, i32 }
%struct.aclInfo = type { i64, i64, i64, i64 }
%struct.redisTLSContextConfig = type { ptr, ptr, ptr, ptr, ptr, ptr, ptr, ptr, ptr, ptr, ptr, ptr, i32, i32, i32, i32 }
%struct.client = type { i64, i64, ptr, i32, ptr, ptr, ptr, ptr, ptr, i64, i64, i32, ptr, i32, i32, ptr, i64, ptr, ptr, ptr, ptr, i32, i32, i64, ptr, i64, ptr, i64, i64, i64, i32, ptr, i64, i64, i32, i32, i32, i32, i64, i64, ptr, i64, i64, i64, i64, i64, i64, i64, i64, [41 x i8], i32, ptr, i32, i32, %struct.multiState, %struct.blockingState, i64, ptr, ptr, ptr, ptr, ptr, ptr, ptr, ptr, ptr, ptr, ptr, ptr, ptr, ptr, i64, ptr, i64, i32, ptr, ptr, ptr, i64, %struct.listNode, i64, i64, i32, i64, ptr }
%struct.multiState = type { ptr, i32, i32, i32, i64, i32 }
%struct.blockingState = type { i32, i64, i32, ptr, i32, i32, i64, ptr, ptr }
%struct.listNode = type { ptr, ptr, ptr }
%struct.connection = type { ptr, i32, i32, i32, i16, i16, i16, ptr, ptr, ptr, ptr }
%struct.ConnectionType = type { ptr, ptr, ptr, ptr, ptr, ptr, ptr, ptr, ptr, ptr, ptr, ptr, ptr, ptr, ptr, ptr, ptr, ptr, ptr, ptr, ptr, ptr, ptr, ptr, ptr, ptr, ptr, ptr }

@server = external global %struct.redisServer, align 8
@.str.3 = private unnamed_addr constant [14 x i8] c"replication.c\00", align 1
@.str.89 = private unnamed_addr constant [38 x i8] c"Write error sending DB to replica: %s\00", align 1
@.str.90 = private unnamed_addr constant [62 x i8] c"Unrecoverable error creating server.rdb_pipe_read file event.\00", align 1
@.str.91 = private unnamed_addr constant [26 x i8] c"server.rdb_pipe_bufflen>0\00", align 1

; Function Attrs: nounwind uwtable
define internal i32 @connSetWriteHandler(ptr noundef %conn, ptr noundef %func) #0 {
entry:
  %conn.addr = alloca ptr, align 8
  %func.addr = alloca ptr, align 8
  store ptr %conn, ptr %conn.addr, align 8
  store ptr %func, ptr %func.addr, align 8
  %0 = load ptr, ptr %conn.addr, align 8
  %type = getelementptr inbounds %struct.connection, ptr %0, i32 0, i32 0
  %1 = load ptr, ptr %type, align 8
  %set_write_handler = getelementptr inbounds %struct.ConnectionType, ptr %1, i32 0, i32 19
  %2 = load ptr, ptr %set_write_handler, align 8
  %3 = load ptr, ptr %conn.addr, align 8
  %4 = load ptr, ptr %func.addr, align 8
  %call = call i32 %2(ptr noundef %3, ptr noundef %4, i32 noundef 0)
  ret i32 %call
}

; Function Attrs: nounwind uwtable
define internal i32 @connHasWriteHandler(ptr noundef %conn) #0 {
entry:
  %conn.addr = alloca ptr, align 8
  store ptr %conn, ptr %conn.addr, align 8
  %0 = load ptr, ptr %conn.addr, align 8
  %write_handler = getelementptr inbounds %struct.connection, ptr %0, i32 0, i32 9
  %1 = load ptr, ptr %write_handler, align 8
  %cmp = icmp ne ptr %1, null
  %conv = zext i1 %cmp to i32
  ret i32 %conv
}

; Function Attrs: nounwind uwtable
define dso_local void @rdbPipeWriteHandlerConnRemoved(ptr noundef %conn) #0 {
entry:
  %conn.addr = alloca ptr, align 8
  %slave = alloca ptr, align 8
  store ptr %conn, ptr %conn.addr, align 8
  %0 = load ptr, ptr %conn.addr, align 8
  %call = call i32 @connHasWriteHandler(ptr noundef %0)
  %tobool = icmp ne i32 %call, 0
  br i1 %tobool, label %if.end, label %if.then

if.then:                                          ; preds = %entry
  br label %if.end8

if.end:                                           ; preds = %entry
  %1 = load ptr, ptr %conn.addr, align 8
  %call1 = call i32 @connSetWriteHandler(ptr noundef %1, ptr noundef null)
  %2 = load ptr, ptr %conn.addr, align 8
  %call2 = call ptr @connGetPrivateData(ptr noundef %2)
  store ptr %call2, ptr %slave, align 8
  %3 = load ptr, ptr %slave, align 8
  %repl_last_partial_write = getelementptr inbounds %struct.client, ptr %3, i32 0, i32 47
  store i64 0, ptr %repl_last_partial_write, align 8
  %4 = load i32, ptr getelementptr inbounds (%struct.redisServer, ptr @server, i32 0, i32 241), align 4
  %dec = add nsw i32 %4, -1
  store i32 %dec, ptr getelementptr inbounds (%struct.redisServer, ptr @server, i32 0, i32 241), align 4
  %5 = load i32, ptr getelementptr inbounds (%struct.redisServer, ptr @server, i32 0, i32 241), align 4
  %cmp = icmp eq i32 %5, 0
  br i1 %cmp, label %if.then3, label %if.end8

if.then3:                                         ; preds = %if.end
  %6 = load ptr, ptr getelementptr inbounds (%struct.redisServer, ptr @server, i32 0, i32 14), align 8
  %7 = load i32, ptr getelementptr inbounds (%struct.redisServer, ptr @server, i32 0, i32 237), align 8
  %call4 = call i32 @aeCreateFileEvent(ptr noundef %6, i32 noundef %7, i32 noundef 1, ptr noundef @rdbPipeReadHandler, ptr noundef null)
  %cmp5 = icmp eq i32 %call4, -1
  br i1 %cmp5, label %if.then6, label %if.end7

if.then6:                                         ; preds = %if.then3
  call void (ptr, i32, ptr, ...) @_serverPanic(ptr noundef @.str.3, i32 noundef 1477, ptr noundef @.str.90)
  call void @abort() #13
  unreachable

if.end7:                                          ; preds = %if.then3
  br label %if.end8

if.end8:                                          ; preds = %if.end7, %if.end, %if.then
  ret void
}

; Function Attrs: nounwind uwtable
define internal ptr @connGetLastError(ptr noundef %conn) #0 {
entry:
  %conn.addr = alloca ptr, align 8
  store ptr %conn, ptr %conn.addr, align 8
  %0 = load ptr, ptr %conn.addr, align 8
  %type = getelementptr inbounds %struct.connection, ptr %0, i32 0, i32 0
  %1 = load ptr, ptr %type, align 8
  %get_last_error = getelementptr inbounds %struct.ConnectionType, ptr %1, i32 0, i32 21
  %2 = load ptr, ptr %get_last_error, align 8
  %3 = load ptr, ptr %conn.addr, align 8
  %call = call ptr %2(ptr noundef %3)
  ret ptr %call
}

; Function Attrs: nounwind uwtable
define internal i32 @connGetState(ptr noundef %conn) #0 {
entry:
  %conn.addr = alloca ptr, align 8
  store ptr %conn, ptr %conn.addr, align 8
  %0 = load ptr, ptr %conn.addr, align 8
  %state = getelementptr inbounds %struct.connection, ptr %0, i32 0, i32 1
  %1 = load i32, ptr %state, align 8
  ret i32 %1
}

; Function Attrs: nounwind uwtable
define internal i32 @connWrite(ptr noundef %conn, ptr noundef %data, i64 noundef %data_len) #0 {
entry:
  %conn.addr = alloca ptr, align 8
  %data.addr = alloca ptr, align 8
  %data_len.addr = alloca i64, align 8
  store ptr %conn, ptr %conn.addr, align 8
  store ptr %data, ptr %data.addr, align 8
  store i64 %data_len, ptr %data_len.addr, align 8
  %0 = load ptr, ptr %conn.addr, align 8
  %type = getelementptr inbounds %struct.connection, ptr %0, i32 0, i32 0
  %1 = load ptr, ptr %type, align 8
  %write = getelementptr inbounds %struct.ConnectionType, ptr %1, i32 0, i32 16
  %2 = load ptr, ptr %write, align 8
  %3 = load ptr, ptr %conn.addr, align 8
  %4 = load ptr, ptr %data.addr, align 8
  %5 = load i64, ptr %data_len.addr, align 8
  %call = call i32 %2(ptr noundef %3, ptr noundef %4, i64 noundef %5)
  ret i32 %call
}

; Function Attrs: nounwind uwtable
define internal ptr @connGetPrivateData(ptr noundef %conn) #0 {
entry:
  %conn.addr = alloca ptr, align 8
  store ptr %conn, ptr %conn.addr, align 8
  %0 = load ptr, ptr %conn.addr, align 8
  %private_data = getelementptr inbounds %struct.connection, ptr %0, i32 0, i32 7
  %1 = load ptr, ptr %private_data, align 8
  ret ptr %1
}

; Function Attrs: nounwind uwtable
define dso_local void @rdbPipeWriteHandler(ptr noundef %conn) #0 {
entry:
  %conn.addr = alloca ptr, align 8
  %slave = alloca ptr, align 8
  %nwritten = alloca i64, align 8
  %.atomictmp = alloca i64, align 8
  %atomic-temp = alloca i64, align 8
  store ptr %conn, ptr %conn.addr, align 8
  %0 = load i32, ptr getelementptr inbounds (%struct.redisServer, ptr @server, i32 0, i32 243), align 8
  %cmp = icmp sgt i32 %0, 0
  %lnot = xor i1 %cmp, true
  %lnot1 = xor i1 %lnot, true
  %lnot.ext = zext i1 %lnot1 to i32
  %conv = sext i32 %lnot.ext to i64
  %tobool = icmp ne i64 %conv, 0
  br i1 %tobool, label %cond.true, label %cond.false

cond.true:                                        ; preds = %entry
  br label %cond.end

cond.false:                                       ; preds = %entry
  call void @_serverAssert(ptr noundef @.str.91, ptr noundef @.str.3, i32 noundef 1485)
  call void @abort() #13
  unreachable

1:                                                ; No predecessors!
  br label %cond.end

cond.end:                                         ; preds = %1, %cond.true
  %2 = load ptr, ptr %conn.addr, align 8
  %call = call ptr @connGetPrivateData(ptr noundef %2)
  store ptr %call, ptr %slave, align 8
  %3 = load ptr, ptr %conn.addr, align 8
  %4 = load ptr, ptr getelementptr inbounds (%struct.redisServer, ptr @server, i32 0, i32 242), align 8
  %5 = load ptr, ptr %slave, align 8
  %repldboff = getelementptr inbounds %struct.client, ptr %5, i32 0, i32 38
  %6 = load i64, ptr %repldboff, align 8
  %add.ptr = getelementptr inbounds i8, ptr %4, i64 %6
  %7 = load i32, ptr getelementptr inbounds (%struct.redisServer, ptr @server, i32 0, i32 243), align 8
  %conv2 = sext i32 %7 to i64
  %8 = load ptr, ptr %slave, align 8
  %repldboff3 = getelementptr inbounds %struct.client, ptr %8, i32 0, i32 38
  %9 = load i64, ptr %repldboff3, align 8
  %sub = sub nsw i64 %conv2, %9
  %call4 = call i32 @connWrite(ptr noundef %3, ptr noundef %add.ptr, i64 noundef %sub)
  %conv5 = sext i32 %call4 to i64
  store i64 %conv5, ptr %nwritten, align 8
  %cmp6 = icmp eq i64 %conv5, -1
  br i1 %cmp6, label %if.then, label %if.else

if.then:                                          ; preds = %cond.end
  %10 = load ptr, ptr %conn.addr, align 8
  %call8 = call i32 @connGetState(ptr noundef %10)
  %cmp9 = icmp eq i32 %call8, 3
  br i1 %cmp9, label %if.then11, label %if.end

if.then11:                                        ; preds = %if.then
  br label %return

if.end:                                           ; preds = %if.then
  br label %do.body

do.body:                                          ; preds = %if.end
  %11 = load i32, ptr getelementptr inbounds (%struct.redisServer, ptr @server, i32 0, i32 156), align 8
  %cmp12 = icmp slt i32 3, %11
  br i1 %cmp12, label %if.then14, label %if.end15

if.then14:                                        ; preds = %do.body
  br label %do.end

if.end15:                                         ; preds = %do.body
  %12 = load ptr, ptr %conn.addr, align 8
  %call16 = call ptr @connGetLastError(ptr noundef %12)
  call void (i32, ptr, ...) @_serverLog(i32 noundef 3, ptr noundef @.str.89, ptr noundef %call16)
  br label %do.end

do.end:                                           ; preds = %if.end15, %if.then14
  %13 = load ptr, ptr %slave, align 8
  call void @freeClient(ptr noundef %13)
  br label %return

if.else:                                          ; preds = %cond.end
  %14 = load i64, ptr %nwritten, align 8
  %15 = load ptr, ptr %slave, align 8
  %repldboff17 = getelementptr inbounds %struct.client, ptr %15, i32 0, i32 38
  %16 = load i64, ptr %repldboff17, align 8
  %add = add nsw i64 %16, %14
  store i64 %add, ptr %repldboff17, align 8
  %17 = load i64, ptr %nwritten, align 8
  store i64 %17, ptr %.atomictmp, align 8
  %18 = load i64, ptr %.atomictmp, align 8
  %19 = atomicrmw add ptr getelementptr inbounds (%struct.redisServer, ptr @server, i32 0, i32 127), i64 %18 monotonic, align 8
  store i64 %19, ptr %atomic-temp, align 8
  %20 = load ptr, ptr %slave, align 8
  %repldboff18 = getelementptr inbounds %struct.client, ptr %20, i32 0, i32 38
  %21 = load i64, ptr %repldboff18, align 8
  %22 = load i32, ptr getelementptr inbounds (%struct.redisServer, ptr @server, i32 0, i32 243), align 8
  %conv19 = sext i32 %22 to i64
  %cmp20 = icmp slt i64 %21, %conv19
  br i1 %cmp20, label %if.then22, label %if.end23

if.then22:                                        ; preds = %if.else
  %atomic-load = load atomic i64, ptr getelementptr inbounds (%struct.redisServer, ptr @server, i32 0, i32 349) seq_cst, align 8
  %23 = load ptr, ptr %slave, align 8
  %repl_last_partial_write = getelementptr inbounds %struct.client, ptr %23, i32 0, i32 47
  store i64 %atomic-load, ptr %repl_last_partial_write, align 8
  br label %return

if.end23:                                         ; preds = %if.else
  br label %if.end24

if.end24:                                         ; preds = %if.end23
  %24 = load ptr, ptr %conn.addr, align 8
  call void @rdbPipeWriteHandlerConnRemoved(ptr noundef %24)
  br label %return

return:                                           ; preds = %if.end24, %if.then22, %do.end, %if.then11
  ret void
}