; Function Attrs: nounwind uwtable
define dso_local void @rdbPipeWriteHandler(ptr noundef %conn) #0 {
entry:
  %0 = load i32, ptr getelementptr inbounds (%struct.redisServer, ptr @server, i64 0, i32 243), align 8
  %cmp = icmp sgt i32 %0, 0
  br i1 %cmp, label %cond.end, label %cond.false

cond.false:                                       ; preds = %entry
  tail call void @_serverAssert(ptr noundef nonnull @.str.91, ptr noundef nonnull @.str.3, i32 noundef 1485) #21
  tail call void @abort() #24
  unreachable

cond.end:                                         ; preds = %entry
  %1 = getelementptr i8, ptr %conn, i64 32
  %conn.val11 = load ptr, ptr %1, align 8
  %2 = load ptr, ptr getelementptr inbounds (%struct.redisServer, ptr @server, i64 0, i32 242), align 8
  %repldboff = getelementptr inbounds i8, ptr %conn.val11, i64 272
  %3 = load i64, ptr %repldboff, align 8
  %add.ptr = getelementptr inbounds i8, ptr %2, i64 %3
  %conv2 = zext nneg i32 %0 to i64
  %sub = sub nsw i64 %conv2, %3
  %4 = load ptr, ptr %conn, align 8
  %write.i = getelementptr inbounds i8, ptr %4, i64 128
  %5 = load ptr, ptr %write.i, align 8
  %call.i = tail call i32 %5(ptr noundef nonnull %conn, ptr noundef %add.ptr, i64 noundef %sub) #21
  %cmp6 = icmp eq i32 %call.i, -1
  br i1 %cmp6, label %if.then, label %if.else

if.then:                                          ; preds = %cond.end
  %6 = getelementptr i8, ptr %conn, i64 8
  %conn.val = load i32, ptr %6, align 8
  %cmp9 = icmp eq i32 %conn.val, 3
  br i1 %cmp9, label %return, label %do.body

do.body:                                          ; preds = %if.then
  %7 = load i32, ptr getelementptr inbounds (%struct.redisServer, ptr @server, i64 0, i32 156), align 8
  %cmp12 = icmp sgt i32 %7, 3
  br i1 %cmp12, label %do.end, label %if.end15

if.end15:                                         ; preds = %do.body
  %8 = load ptr, ptr %conn, align 8
  %get_last_error.i = getelementptr inbounds i8, ptr %8, i64 168
  %9 = load ptr, ptr %get_last_error.i, align 8
  %call.i12 = tail call ptr %9(ptr noundef nonnull %conn) #21
  tail call void (i32, ptr, ...) @_serverLog(i32 noundef 3, ptr noundef nonnull @.str.89, ptr noundef %call.i12) #21
  br label %do.end

do.end:                                           ; preds = %do.body, %if.end15
  tail call void @freeClient(ptr noundef nonnull %conn.val11) #21
  br label %return

if.else:                                          ; preds = %cond.end
  %conv5 = sext i32 %call.i to i64
  %10 = load i64, ptr %repldboff, align 8
  %add = add nsw i64 %10, %conv5
  store i64 %add, ptr %repldboff, align 8
  %11 = atomicrmw add ptr getelementptr inbounds (%struct.redisServer, ptr @server, i64 0, i32 127), i64 %conv5 monotonic, align 8
  %12 = load i64, ptr %repldboff, align 8
  %13 = load i32, ptr getelementptr inbounds (%struct.redisServer, ptr @server, i64 0, i32 243), align 8
  %conv19 = sext i32 %13 to i64
  %cmp20 = icmp slt i64 %12, %conv19
  br i1 %cmp20, label %if.then22, label %if.end24

if.then22:                                        ; preds = %if.else
  %atomic-load = load atomic i64, ptr getelementptr inbounds (%struct.redisServer, ptr @server, i64 0, i32 349) seq_cst, align 8
  %repl_last_partial_write = getelementptr inbounds i8, ptr %conn.val11, i64 344
  store i64 %atomic-load, ptr %repl_last_partial_write, align 8
  br label %return

if.end24:                                         ; preds = %if.else
  %14 = getelementptr i8, ptr %conn, i64 48
  %conn.val3.i = load ptr, ptr %14, align 8
  %cmp.i.not.i = icmp eq ptr %conn.val3.i, null
  br i1 %cmp.i.not.i, label %return, label %if.end.i

if.end.i:                                         ; preds = %if.end24
  %15 = load ptr, ptr %conn, align 8
  %set_write_handler.i.i = getelementptr inbounds i8, ptr %15, i64 152
  %16 = load ptr, ptr %set_write_handler.i.i, align 8
  %call.i.i = tail call i32 %16(ptr noundef nonnull %conn, ptr noundef null, i32 noundef 0) #21
  %conn.val.i = load ptr, ptr %1, align 8
  %repl_last_partial_write.i = getelementptr inbounds i8, ptr %conn.val.i, i64 344
  store i64 0, ptr %repl_last_partial_write.i, align 8
  %17 = load i32, ptr getelementptr inbounds (%struct.redisServer, ptr @server, i64 0, i32 241), align 4
  %dec.i = add nsw i32 %17, -1
  store i32 %dec.i, ptr getelementptr inbounds (%struct.redisServer, ptr @server, i64 0, i32 241), align 4
  %cmp.i = icmp eq i32 %dec.i, 0
  br i1 %cmp.i, label %if.then3.i, label %return

if.then3.i:                                       ; preds = %if.end.i
  %18 = load ptr, ptr getelementptr inbounds (%struct.redisServer, ptr @server, i64 0, i32 14), align 8
  %19 = load i32, ptr getelementptr inbounds (%struct.redisServer, ptr @server, i64 0, i32 237), align 8
  %call4.i = tail call i32 @aeCreateFileEvent(ptr noundef %18, i32 noundef %19, i32 noundef 1, ptr noundef nonnull @rdbPipeReadHandler, ptr noundef null) #21
  %cmp5.i = icmp eq i32 %call4.i, -1
  br i1 %cmp5.i, label %if.then6.i, label %return

if.then6.i:                                       ; preds = %if.then3.i
  tail call void (ptr, i32, ptr, ...) @_serverPanic(ptr noundef nonnull @.str.3, i32 noundef 1477, ptr noundef nonnull @.str.90) #21
  tail call void @abort() #24
  unreachable

return:                                           ; preds = %if.then3.i, %if.end.i, %if.end24, %if.then, %if.then22, %do.end
  ret void
}